target datalayout = "e-m:e-p270:32:32-p271:32:32-p272:64:64-i64:64-i128:128-f80:128-n8:16:32:64-S128"
target triple = "x86_64-pc-linux-gnu"

%struct.quic_pkt_hdr_ptrs_st = type { ptr, ptr, i64, ptr }

; Function Attrs: nounwind uwtable
define i32 @ossl_quic_hdr_protector_encrypt_fields(ptr noundef %0, ptr noundef %1, i64 noundef %2, ptr noundef %3, ptr noundef %4) #0 {
  %6 = alloca i32, align 4
  %7 = alloca ptr, align 8
  %8 = alloca ptr, align 8
  %9 = alloca i64, align 8
  %10 = alloca ptr, align 8
  %11 = alloca ptr, align 8
  %12 = alloca [5 x i8], align 1
  %13 = alloca i8, align 1
  %14 = alloca i8, align 1
  %15 = alloca i32, align 4
  store ptr %0, ptr %7, align 8, !tbaa !3
  store ptr %1, ptr %8, align 8, !tbaa !10
  store i64 %2, ptr %9, align 8, !tbaa !14
  store ptr %3, ptr %10, align 8, !tbaa !10
  store ptr %4, ptr %11, align 8, !tbaa !10
  call void @llvm.lifetime.start.p0(i64 5, ptr %12) #7
  call void @llvm.lifetime.start.p0(i64 1, ptr %13) #7
  call void @llvm.lifetime.start.p0(i64 1, ptr %14) #7
  %16 = load ptr, ptr %7, align 8, !tbaa !3
  %17 = load ptr, ptr %8, align 8, !tbaa !10
  %18 = load i64, ptr %9, align 8, !tbaa !14
  %19 = getelementptr inbounds [5 x i8], ptr %12, i64 0, i64 0
  %20 = call i32 @hdr_generate_mask(ptr noundef %16, ptr noundef %17, i64 noundef %18, ptr noundef %19)
  %21 = icmp ne i32 %20, 0
  br i1 %21, label %23, label %22

22:                                               ; preds = %5
  store i32 0, ptr %6, align 4
  store i32 1, ptr %15, align 4
  br label %71

23:                                               ; preds = %5
  %24 = load ptr, ptr %10, align 8, !tbaa !10
  %25 = load i8, ptr %24, align 1, !tbaa !31
  %26 = zext i8 %25 to i32
  %27 = and i32 %26, 3
  %28 = add nsw i32 %27, 1
  %29 = trunc i32 %28 to i8
  store i8 %29, ptr %13, align 1, !tbaa !31
  store i8 0, ptr %14, align 1, !tbaa !31
  br label %30

30:                                               ; preds = %52, %23
  %31 = load i8, ptr %14, align 1, !tbaa !31
  %32 = zext i8 %31 to i32
  %33 = load i8, ptr %13, align 1, !tbaa !31
  %34 = zext i8 %33 to i32
  %35 = icmp slt i32 %32, %34
  br i1 %35, label %36, label %55

36:                                               ; preds = %30
  %37 = load i8, ptr %14, align 1, !tbaa !31
  %38 = zext i8 %37 to i32
  %39 = add nsw i32 %38, 1
  %40 = sext i32 %39 to i64
  %41 = getelementptr inbounds [5 x i8], ptr %12, i64 0, i64 %40
  %42 = load i8, ptr %41, align 1, !tbaa !31
  %43 = zext i8 %42 to i32
  %44 = load ptr, ptr %11, align 8, !tbaa !10
  %45 = load i8, ptr %14, align 1, !tbaa !31
  %46 = zext i8 %45 to i64
  %47 = getelementptr inbounds nuw i8, ptr %44, i64 %46
  %48 = load i8, ptr %47, align 1, !tbaa !31
  %49 = zext i8 %48 to i32
  %50 = xor i32 %49, %43
  %51 = trunc i32 %50 to i8
  store i8 %51, ptr %47, align 1, !tbaa !31
  br label %52

52:                                               ; preds = %36
  %53 = load i8, ptr %14, align 1, !tbaa !31
  %54 = add i8 %53, 1
  store i8 %54, ptr %14, align 1, !tbaa !31
  br label %30, !llvm.loop !35

55:                                               ; preds = %30
  %56 = getelementptr inbounds [5 x i8], ptr %12, i64 0, i64 0
  %57 = load i8, ptr %56, align 1, !tbaa !31
  %58 = zext i8 %57 to i32
  %59 = load ptr, ptr %10, align 8, !tbaa !10
  %60 = load i8, ptr %59, align 1, !tbaa !31
  %61 = zext i8 %60 to i32
  %62 = and i32 %61, 128
  %63 = icmp ne i32 %62, 0
  %64 = select i1 %63, i32 15, i32 31
  %65 = and i32 %58, %64
  %66 = load ptr, ptr %10, align 8, !tbaa !10
  %67 = load i8, ptr %66, align 1, !tbaa !31
  %68 = zext i8 %67 to i32
  %69 = xor i32 %68, %65
  %70 = trunc i32 %69 to i8
  store i8 %70, ptr %66, align 1, !tbaa !31
  store i32 1, ptr %6, align 4
  store i32 1, ptr %15, align 4
  br label %71

71:                                               ; preds = %55, %22
  call void @llvm.lifetime.end.p0(i64 1, ptr %14) #7
  call void @llvm.lifetime.end.p0(i64 1, ptr %13) #7
  call void @llvm.lifetime.end.p0(i64 5, ptr %12) #7
  %72 = load i32, ptr %6, align 4
  ret i32 %72
}

; Function Attrs: nounwind uwtable
define i32 @ossl_quic_hdr_protector_encrypt(ptr noundef %0, ptr noundef %1) #0 {
  %3 = alloca ptr, align 8
  %4 = alloca ptr, align 8
  store ptr %0, ptr %3, align 8, !tbaa !3
  store ptr %1, ptr %4, align 8, !tbaa !24
  %5 = load ptr, ptr %3, align 8, !tbaa !3
  %6 = load ptr, ptr %4, align 8, !tbaa !24
  %7 = getelementptr inbounds nuw %struct.quic_pkt_hdr_ptrs_st, ptr %6, i32 0, i32 1
  %8 = load ptr, ptr %7, align 8, !tbaa !26
  %9 = load ptr, ptr %4, align 8, !tbaa !24
  %10 = getelementptr inbounds nuw %struct.quic_pkt_hdr_ptrs_st, ptr %9, i32 0, i32 2
  %11 = load i64, ptr %10, align 8, !tbaa !28
  %12 = load ptr, ptr %4, align 8, !tbaa !24
  %13 = getelementptr inbounds nuw %struct.quic_pkt_hdr_ptrs_st, ptr %12, i32 0, i32 0
  %14 = load ptr, ptr %13, align 8, !tbaa !29
  %15 = load ptr, ptr %4, align 8, !tbaa !24
  %16 = getelementptr inbounds nuw %struct.quic_pkt_hdr_ptrs_st, ptr %15, i32 0, i32 3
  %17 = load ptr, ptr %16, align 8, !tbaa !30
  %18 = call i32 @ossl_quic_hdr_protector_encrypt_fields(ptr noundef %5, ptr noundef %8, i64 noundef %11, ptr noundef %14, ptr noundef %17)
  ret i32 %18
}