; Function Attrs: nounwind uwtable
define range(i32 0, 2) i32 @ossl_quic_hdr_protector_encrypt(ptr noundef readonly captures(none) %0, ptr noundef readonly captures(none) %1) local_unnamed_addr #0 {
  %3 = alloca [5 x i8], align 1
  %4 = getelementptr inbounds nuw i8, ptr %1, i64 8
  %5 = load ptr, ptr %4, align 8, !tbaa !17
  %6 = getelementptr inbounds nuw i8, ptr %1, i64 16
  %7 = load i64, ptr %6, align 8, !tbaa !20
  %8 = load ptr, ptr %1, align 8, !tbaa !21
  %9 = getelementptr inbounds nuw i8, ptr %1, i64 24
  %10 = load ptr, ptr %9, align 8, !tbaa !22
  call void @llvm.lifetime.start.p0(i64 5, ptr nonnull %3) #10
  %11 = call fastcc i32 @hdr_generate_mask(ptr noundef readonly %0, ptr noundef %5, i64 noundef %7, ptr noundef %3)
  %.not.i = icmp eq i32 %11, 0
  br i1 %.not.i, label %ossl_quic_hdr_protector_encrypt_fields.exit, label %12

12:                                               ; preds = %2
  %13 = load i8, ptr %8, align 1, !tbaa !23
  %14 = and i8 %13, 3
  %15 = add nuw nsw i8 %14, 1
  %wide.trip.count.i = zext nneg i8 %15 to i64
  br label %16

16:                                               ; preds = %16, %12
  %indvars.iv.i = phi i64 [ 0, %12 ], [ %17, %16 ]
  %17 = add nuw nsw i64 %indvars.iv.i, 1
  %18 = getelementptr inbounds nuw [5 x i8], ptr %3, i64 0, i64 %17
  %19 = load i8, ptr %18, align 1, !tbaa !23
  %20 = getelementptr inbounds nuw i8, ptr %10, i64 %indvars.iv.i
  %21 = load i8, ptr %20, align 1, !tbaa !23
  %22 = xor i8 %21, %19
  store i8 %22, ptr %20, align 1, !tbaa !23
  %exitcond.i = icmp eq i64 %17, %wide.trip.count.i
  br i1 %exitcond.i, label %23, label %16, !llvm.loop !27

23:                                               ; preds = %16
  %24 = load i8, ptr %3, align 1, !tbaa !23
  %25 = load i8, ptr %8, align 1, !tbaa !23
  %.not15.i = icmp sgt i8 %25, -1
  %26 = select i1 %.not15.i, i8 31, i8 15
  %27 = and i8 %26, %24
  %28 = xor i8 %27, %25
  store i8 %28, ptr %8, align 1, !tbaa !23
  br label %ossl_quic_hdr_protector_encrypt_fields.exit

ossl_quic_hdr_protector_encrypt_fields.exit:      ; preds = %2, %23
  %.012.i = phi i32 [ 1, %23 ], [ 0, %2 ]
  call void @llvm.lifetime.end.p0(i64 5, ptr nonnull %3) #10
  ret i32 %.012.i
}